target datalayout = "e-m:e-p270:32:32-p271:32:32-p272:64:64-i64:64-i128:128-f80:128-n8:16:32:64-S128"
target triple = "x86_64-pc-linux-gnu"

%"class.std::__cxx11::basic_string" = type { %"struct.std::__cxx11::basic_string<char>::_Alloc_hider", i64, %union.anon }
%"struct.std::__cxx11::basic_string<char>::_Alloc_hider" = type { ptr }
%union.anon = type { i64, [8 x i8] }
%"class.std::unique_ptr.23" = type { %"struct.std::__uniq_ptr_data.24" }
%"struct.std::__uniq_ptr_data.24" = type { %"class.std::__uniq_ptr_impl.25" }
%"class.std::__uniq_ptr_impl.25" = type { %"class.std::tuple.26" }
%"class.std::tuple.26" = type { %"struct.std::_Tuple_impl.27" }
%"struct.std::_Tuple_impl.27" = type { %"struct.std::_Head_base.30" }
%"struct.std::_Head_base.30" = type { ptr }
%class.cmCursesMainForm = type <{ %class.cmCursesForm, %"class.std::vector.3", %"class.std::unique_ptr", %"class.std::vector", i8, [7 x i8], %"class.std::__cxx11::basic_string", %"class.std::vector", %"class.std::vector", %"class.std::vector.10", i64, i8, i8, [2 x i8], i32, i8, [7 x i8], %"class.std::unique_ptr.15", i32, [4 x i8], %"class.std::unique_ptr.23", %"class.std::__cxx11::basic_string", %"class.std::__cxx11::basic_string", i8, [7 x i8] }>
%class.cmCursesForm = type { ptr, ptr }
%"class.std::vector.3" = type { %"struct.std::_Vector_base.4" }
%"struct.std::_Vector_base.4" = type { %"struct.std::_Vector_base<cmCursesCacheEntryComposite, std::allocator<cmCursesCacheEntryComposite>>::_Vector_impl" }
%"struct.std::_Vector_base<cmCursesCacheEntryComposite, std::allocator<cmCursesCacheEntryComposite>>::_Vector_impl" = type { %"struct.std::_Vector_base<cmCursesCacheEntryComposite, std::allocator<cmCursesCacheEntryComposite>>::_Vector_impl_data" }
%"struct.std::_Vector_base<cmCursesCacheEntryComposite, std::allocator<cmCursesCacheEntryComposite>>::_Vector_impl_data" = type { ptr, ptr, ptr }
%"class.std::unique_ptr" = type { %"struct.std::__uniq_ptr_data" }
%"struct.std::__uniq_ptr_data" = type { %"class.std::__uniq_ptr_impl" }
%"class.std::__uniq_ptr_impl" = type { %"class.std::tuple" }
%"class.std::tuple" = type { %"struct.std::_Tuple_impl" }
%"struct.std::_Tuple_impl" = type { %"struct.std::_Head_base.9" }
%"struct.std::_Head_base.9" = type { ptr }
%"class.std::vector" = type { %"struct.std::_Vector_base" }
%"struct.std::_Vector_base" = type { %"struct.std::_Vector_base<std::__cxx11::basic_string<char>, std::allocator<std::__cxx11::basic_string<char>>>::_Vector_impl" }
%"struct.std::_Vector_base<std::__cxx11::basic_string<char>, std::allocator<std::__cxx11::basic_string<char>>>::_Vector_impl" = type { %"struct.std::_Vector_base<std::__cxx11::basic_string<char>, std::allocator<std::__cxx11::basic_string<char>>>::_Vector_impl_data" }
%"struct.std::_Vector_base<std::__cxx11::basic_string<char>, std::allocator<std::__cxx11::basic_string<char>>>::_Vector_impl_data" = type { ptr, ptr, ptr }
%"class.std::vector.10" = type { %"struct.std::_Vector_base.11" }
%"struct.std::_Vector_base.11" = type { %"struct.std::_Vector_base<fieldnode *, std::allocator<fieldnode *>>::_Vector_impl" }
%"struct.std::_Vector_base<fieldnode *, std::allocator<fieldnode *>>::_Vector_impl" = type { %"struct.std::_Vector_base<fieldnode *, std::allocator<fieldnode *>>::_Vector_impl_data" }
%"struct.std::_Vector_base<fieldnode *, std::allocator<fieldnode *>>::_Vector_impl_data" = type { ptr, ptr, ptr }
%"class.std::unique_ptr.15" = type { %"struct.std::__uniq_ptr_data.16" }
%"struct.std::__uniq_ptr_data.16" = type { %"class.std::__uniq_ptr_impl.17" }
%"class.std::__uniq_ptr_impl.17" = type { %"class.std::tuple.18" }
%"class.std::tuple.18" = type { %"struct.std::_Tuple_impl.19" }
%"struct.std::_Tuple_impl.19" = type { %"struct.std::_Head_base.22" }
%"struct.std::_Head_base.22" = type { ptr }
%class.cmCursesWidget = type <{ ptr, i32, [4 x i8], %"class.std::__cxx11::basic_string", ptr, i32, [4 x i8] }>
%struct._win_st = type { i16, i16, i16, i16, i16, i16, i16, i32, i32, i8, i8, i8, i8, i8, i8, i8, i8, i8, i32, ptr, i16, i16, i32, i32, ptr, %"struct._win_st::pdat", i16, %struct.cchar_t, i32 }
%"struct._win_st::pdat" = type { i16, i16, i16, i16, i16, i16 }
%struct.cchar_t = type { i32, [5 x i32], i32 }

@stdscr = external global ptr, align 8
@__const._ZN16cmCursesMainForm9PrintKeysEi.fmt_s = private unnamed_addr constant [3 x i8] c"%s\00", align 1
@.str.5 = private unnamed_addr constant [69 x i8] c"      [l] Show log output   [c] Configure       [g] Generate        \00", align 1
@.str.6 = private unnamed_addr constant [69 x i8] c"      [l] Show log output   [c] Configure                           \00", align 1
@.str.7 = private unnamed_addr constant [46 x i8] c"      [t] Toggle advanced mode (currently %s)\00", align 1
@.str.8 = private unnamed_addr constant [3 x i8] c"on\00", align 1
@.str.9 = private unnamed_addr constant [4 x i8] c"off\00", align 1
@.str.10 = private unnamed_addr constant [56 x i8] c"      [h] Help              [q] Quit without generating\00", align 1
@.str.11 = private unnamed_addr constant [14 x i8] c"Page %d of %d\00", align 1

; Function Attrs: mustprogress nounwind uwtable
define linkonce_odr dso_local noundef i32 @_ZN14cmCursesWidget7GetPageEv(ptr noundef nonnull align 8 dereferenceable(60) %0) #5 comdat align 2 {
  %2 = alloca ptr, align 8
  store ptr %0, ptr %2, align 8
  %3 = load ptr, ptr %2, align 8
  %4 = getelementptr inbounds %class.cmCursesWidget, ptr %3, i32 0, i32 5
  %5 = load i32, ptr %4, align 8
  ret i32 %5
}

; Function Attrs: mustprogress uwtable
define linkonce_odr dso_local void @_Z11curses_movejj(i32 noundef %0, i32 noundef %1) #4 comdat {
  %3 = alloca i32, align 4
  %4 = alloca i32, align 4
  store i32 %0, ptr %3, align 4
  store i32 %1, ptr %4, align 4
  %5 = load i32, ptr %3, align 4
  %6 = load i32, ptr %4, align 4
  %7 = call i32 @move(i32 noundef %5, i32 noundef %6)
  ret void
}

; Function Attrs: mustprogress uwtable
define dso_local void @_ZN16cmCursesMainForm9PrintKeysEi(ptr noundef nonnull align 8 dereferenceable(297) %0, i32 noundef %1) #4 align 2 {
  %3 = alloca ptr, align 8
  %4 = alloca i32, align 4
  %5 = alloca i32, align 4
  %6 = alloca i32, align 4
  %7 = alloca ptr, align 8
  %8 = alloca ptr, align 8
  %9 = alloca [3 x i8], align 1
  %10 = alloca [512 x i8], align 16
  %11 = alloca [512 x i8], align 16
  %12 = alloca [512 x i8], align 16
  %13 = alloca ptr, align 8
  %14 = alloca [512 x i8], align 16
  %15 = alloca [512 x i8], align 16
  store ptr %0, ptr %3, align 8
  store i32 %1, ptr %4, align 4
  %16 = load ptr, ptr %3, align 8
  %17 = load ptr, ptr @stdscr, align 8
  %18 = icmp ne ptr null, %17
  br i1 %18, label %19, label %25

19:                                               ; preds = %2
  %20 = load ptr, ptr @stdscr, align 8
  %21 = getelementptr inbounds %struct._win_st, ptr %20, i32 0, i32 2
  %22 = load i16, ptr %21, align 4
  %23 = sext i16 %22 to i32
  %24 = add nsw i32 %23, 1
  br label %26

25:                                               ; preds = %2
  br label %26

26:                                               ; preds = %25, %19
  %27 = phi i32 [ %24, %19 ], [ -1, %25 ]
  store i32 %27, ptr %6, align 4
  %28 = load ptr, ptr @stdscr, align 8
  %29 = icmp ne ptr null, %28
  br i1 %29, label %30, label %36

30:                                               ; preds = %26
  %31 = load ptr, ptr @stdscr, align 8
  %32 = getelementptr inbounds %struct._win_st, ptr %31, i32 0, i32 3
  %33 = load i16, ptr %32, align 2
  %34 = sext i16 %33 to i32
  %35 = add nsw i32 %34, 1
  br label %37

36:                                               ; preds = %26
  br label %37

37:                                               ; preds = %36, %30
  %38 = phi i32 [ %35, %30 ], [ -1, %36 ]
  store i32 %38, ptr %5, align 4
  %39 = load i32, ptr %5, align 4
  %40 = icmp slt i32 %39, 65
  br i1 %40, label %49, label %41

41:                                               ; preds = %37
  %42 = load i32, ptr %5, align 4
  %43 = getelementptr inbounds %class.cmCursesMainForm, ptr %16, i32 0, i32 18
  %44 = load i32, ptr %43, align 8
  %45 = icmp slt i32 %42, %44
  br i1 %45, label %49, label %46

46:                                               ; preds = %41
  %47 = load i32, ptr %6, align 4
  %48 = icmp slt i32 %47, 6
  br i1 %48, label %49, label %50

49:                                               ; preds = %46, %41, %37
  br label %144

50:                                               ; preds = %46
  store ptr null, ptr %7, align 8
  %51 = getelementptr inbounds %class.cmCursesForm, ptr %16, i32 0, i32 1
  %52 = load ptr, ptr %51, align 8
  %53 = icmp ne ptr %52, null
  br i1 %53, label %54, label %60

54:                                               ; preds = %50
  %55 = getelementptr inbounds %class.cmCursesForm, ptr %16, i32 0, i32 1
  %56 = load ptr, ptr %55, align 8
  %57 = call ptr @current_field(ptr noundef %56)
  store ptr %57, ptr %8, align 8
  %58 = load ptr, ptr %8, align 8
  %59 = call ptr @field_userptr(ptr noundef %58)
  store ptr %59, ptr %7, align 8
  br label %60

60:                                               ; preds = %54, %50
  call void @llvm.memcpy.p0.p0.i64(ptr align 1 %9, ptr align 1 @__const._ZN16cmCursesMainForm9PrintKeysEi.fmt_s, i64 3, i1 false)
  %61 = load ptr, ptr %7, align 8
  %62 = icmp eq ptr %61, null
  br i1 %62, label %69, label %63

63:                                               ; preds = %60
  %64 = load ptr, ptr %7, align 8
  %65 = load ptr, ptr %64, align 8
  %66 = getelementptr inbounds ptr, ptr %65, i64 6
  %67 = load ptr, ptr %66, align 8
  %68 = call noundef zeroext i1 %67(ptr noundef nonnull align 8 dereferenceable(60) %64)
  br i1 %68, label %122, label %69

69:                                               ; preds = %63, %60
  call void @llvm.memset.p0.i64(ptr align 16 %10, i8 0, i64 512, i1 false)
  call void @llvm.memset.p0.i64(ptr align 16 %11, i8 0, i64 512, i1 false)
  call void @llvm.memset.p0.i64(ptr align 16 %12, i8 0, i64 512, i1 false)
  %70 = load i32, ptr %4, align 4
  %71 = icmp ne i32 %70, 0
  br i1 %71, label %72, label %76

72:                                               ; preds = %69
  %73 = getelementptr inbounds [512 x i8], ptr %10, i64 0, i64 0
  call void @llvm.memset.p0.i64(ptr align 16 %73, i8 32, i64 68, i1 false)
  %74 = getelementptr inbounds [512 x i8], ptr %11, i64 0, i64 0
  call void @llvm.memset.p0.i64(ptr align 16 %74, i8 32, i64 68, i1 false)
  %75 = getelementptr inbounds [512 x i8], ptr %12, i64 0, i64 0
  call void @llvm.memset.p0.i64(ptr align 16 %75, i8 32, i64 68, i1 false)
  br label %96

76:                                               ; preds = %69
  %77 = getelementptr inbounds %class.cmCursesMainForm, ptr %16, i32 0, i32 12
  %78 = load i8, ptr %77, align 1
  %79 = trunc i8 %78 to i1
  br i1 %79, label %80, label %83

80:                                               ; preds = %76
  %81 = getelementptr inbounds [512 x i8], ptr %10, i64 0, i64 0
  %82 = call i32 (ptr, i64, ptr, ...) @snprintf(ptr noundef %81, i64 noundef 512, ptr noundef @.str.5) #3
  br label %86

83:                                               ; preds = %76
  %84 = getelementptr inbounds [512 x i8], ptr %10, i64 0, i64 0
  %85 = call i32 (ptr, i64, ptr, ...) @snprintf(ptr noundef %84, i64 noundef 512, ptr noundef @.str.6) #3
  br label %86

86:                                               ; preds = %83, %80
  store ptr @.str.7, ptr %13, align 8
  %87 = getelementptr inbounds [512 x i8], ptr %12, i64 0, i64 0
  %88 = load ptr, ptr %13, align 8
  %89 = getelementptr inbounds %class.cmCursesMainForm, ptr %16, i32 0, i32 11
  %90 = load i8, ptr %89, align 8
  %91 = trunc i8 %90 to i1
  %92 = select i1 %91, ptr @.str.8, ptr @.str.9
  %93 = call i32 (ptr, i64, ptr, ...) @snprintf(ptr noundef %87, i64 noundef 512, ptr noundef %88, ptr noundef %92) #3
  %94 = getelementptr inbounds [512 x i8], ptr %11, i64 0, i64 0
  %95 = call i32 (ptr, i64, ptr, ...) @snprintf(ptr noundef %94, i64 noundef 512, ptr noundef @.str.10) #3
  br label %96

96:                                               ; preds = %86, %72
  %97 = load i32, ptr %6, align 4
  %98 = sub nsw i32 %97, 4
  call void @_Z11curses_movejj(i32 noundef %98, i32 noundef 0)
  call void @llvm.memcpy.p0.p0.i64(ptr align 16 %14, ptr align 16 @__const._ZN16cmCursesMainForm9PrintKeysEi.fmt, i64 512, i1 false)
  %99 = load i32, ptr %4, align 4
  %100 = icmp ne i32 %99, 0
  br i1 %100, label %101, label %103

101:                                              ; preds = %96
  %102 = getelementptr inbounds [512 x i8], ptr %14, i64 0, i64 0
  call void @llvm.memset.p0.i64(ptr align 16 %102, i8 32, i64 57, i1 false)
  br label %103

103:                                              ; preds = %101, %96
  %104 = getelementptr inbounds [3 x i8], ptr %9, i64 0, i64 0
  %105 = getelementptr inbounds [512 x i8], ptr %14, i64 0, i64 0
  %106 = call i32 (ptr, ...) @printw(ptr noundef %104, ptr noundef %105)
  %107 = load i32, ptr %6, align 4
  %108 = sub nsw i32 %107, 3
  call void @_Z11curses_movejj(i32 noundef %108, i32 noundef 0)
  %109 = getelementptr inbounds [3 x i8], ptr %9, i64 0, i64 0
  %110 = getelementptr inbounds [512 x i8], ptr %10, i64 0, i64 0
  %111 = call i32 (ptr, ...) @printw(ptr noundef %109, ptr noundef %110)
  %112 = load i32, ptr %6, align 4
  %113 = sub nsw i32 %112, 2
  call void @_Z11curses_movejj(i32 noundef %113, i32 noundef 0)
  %114 = getelementptr inbounds [3 x i8], ptr %9, i64 0, i64 0
  %115 = getelementptr inbounds [512 x i8], ptr %11, i64 0, i64 0
  %116 = call i32 (ptr, ...) @printw(ptr noundef %114, ptr noundef %115)
  %117 = load i32, ptr %6, align 4
  %118 = sub nsw i32 %117, 1
  call void @_Z11curses_movejj(i32 noundef %118, i32 noundef 0)
  %119 = getelementptr inbounds [3 x i8], ptr %9, i64 0, i64 0
  %120 = getelementptr inbounds [512 x i8], ptr %12, i64 0, i64 0
  %121 = call i32 (ptr, ...) @printw(ptr noundef %119, ptr noundef %120)
  br label %122

122:                                              ; preds = %103, %63
  %123 = load ptr, ptr %7, align 8
  %124 = icmp ne ptr %123, null
  br i1 %124, label %125, label %140

125:                                              ; preds = %122
  call void @llvm.memset.p0.i64(ptr align 16 %15, i8 0, i64 512, i1 false)
  %126 = getelementptr inbounds [512 x i8], ptr %15, i64 0, i64 0
  %127 = load ptr, ptr %7, align 8
  %128 = call noundef i32 @_ZN14cmCursesWidget7GetPageEv(ptr noundef nonnull align 8 dereferenceable(60) %127)
  %129 = getelementptr inbounds %class.cmCursesMainForm, ptr %16, i32 0, i32 14
  %130 = load i32, ptr %129, align 4
  %131 = call i32 (ptr, i64, ptr, ...) @snprintf(ptr noundef %126, i64 noundef 512, ptr noundef @.str.11, i32 noundef %128, i32 noundef %130) #3
  %132 = getelementptr inbounds [512 x i8], ptr %15, i64 0, i64 0
  %133 = call i64 @strlen(ptr noundef %132) #17
  %134 = trunc i64 %133 to i32
  %135 = sub i32 65, %134
  %136 = sub i32 %135, 1
  call void @_Z11curses_movejj(i32 noundef 0, i32 noundef %136)
  %137 = getelementptr inbounds [3 x i8], ptr %9, i64 0, i64 0
  %138 = getelementptr inbounds [512 x i8], ptr %15, i64 0, i64 0
  %139 = call i32 (ptr, ...) @printw(ptr noundef %137, ptr noundef %138)
  br label %140

140:                                              ; preds = %125, %122
  %141 = getelementptr inbounds %class.cmCursesForm, ptr %16, i32 0, i32 1
  %142 = load ptr, ptr %141, align 8
  %143 = call i32 @pos_form_cursor(ptr noundef %142)
  br label %144

144:                                              ; preds = %140, %49
  ret void
}