; Function Attrs: mustprogress uwtable
define dso_local void @_ZN16cmCursesMainForm9PrintKeysEi(ptr nocapture noundef nonnull readonly align 8 dereferenceable(297) %0, i32 noundef %1) local_unnamed_addr #3 align 2 {
  %3 = alloca [3 x i8], align 1
  %4 = alloca [512 x i8], align 16
  %5 = alloca [512 x i8], align 16
  %6 = alloca [512 x i8], align 16
  %7 = alloca [512 x i8], align 16
  %8 = alloca [512 x i8], align 16
  %9 = load ptr, ptr @stdscr, align 8
  %.not = icmp eq ptr %9, null
  br i1 %.not, label %.thread27, label %10

10:                                               ; preds = %2
  %11 = getelementptr inbounds i8, ptr %9, i64 4
  %12 = load i16, ptr %11, align 4
  %13 = sext i16 %12 to i32
  %14 = getelementptr inbounds i8, ptr %9, i64 6
  %15 = load i16, ptr %14, align 2
  %16 = icmp slt i16 %15, 64
  br i1 %16, label %.thread27, label %17

17:                                               ; preds = %10
  %narrow = add nuw i16 %15, 1
  %18 = zext i16 %narrow to i32
  %19 = getelementptr inbounds i8, ptr %0, i64 216
  %20 = load i32, ptr %19, align 8
  %21 = icmp sgt i32 %20, %18
  %22 = icmp slt i16 %12, 5
  %or.cond = select i1 %21, i1 true, i1 %22
  br i1 %or.cond, label %.thread27, label %23

23:                                               ; preds = %17
  %24 = getelementptr inbounds i8, ptr %0, i64 8
  %25 = load ptr, ptr %24, align 8
  %.not22 = icmp eq ptr %25, null
  br i1 %.not22, label %.thread28, label %26

.thread28:                                        ; preds = %23
  call void @llvm.memcpy.p0.p0.i64(ptr noundef nonnull align 1 dereferenceable(3) %3, ptr noundef nonnull align 1 dereferenceable(3) @__const._ZN16cmCursesMainForm15UpdateStatusBarESt8optionalINSt7__cxx1112basic_stringIcSt11char_traitsIcESaIcEEEE.fmt_s, i64 3, i1 false)
  br label %35

26:                                               ; preds = %23
  %27 = tail call ptr @current_field(ptr noundef nonnull %25)
  %28 = tail call ptr @field_userptr(ptr noundef %27)
  call void @llvm.memcpy.p0.p0.i64(ptr noundef nonnull align 1 dereferenceable(3) %3, ptr noundef nonnull align 1 dereferenceable(3) @__const._ZN16cmCursesMainForm15UpdateStatusBarESt8optionalINSt7__cxx1112basic_stringIcSt11char_traitsIcESaIcEEEE.fmt_s, i64 3, i1 false)
  %29 = icmp eq ptr %28, null
  br i1 %29, label %35, label %30

30:                                               ; preds = %26
  %31 = load ptr, ptr %28, align 8
  %32 = getelementptr inbounds i8, ptr %31, i64 48
  %33 = load ptr, ptr %32, align 8
  %34 = tail call noundef zeroext i1 %33(ptr noundef nonnull align 8 dereferenceable(60) %28)
  br i1 %34, label %.thread32, label %35

35:                                               ; preds = %.thread28, %30, %26
  %36 = phi i1 [ true, %.thread28 ], [ false, %30 ], [ true, %26 ]
  %.030 = phi ptr [ null, %.thread28 ], [ %28, %30 ], [ null, %26 ]
  call void @llvm.memset.p0.i64(ptr noundef nonnull align 16 dereferenceable(512) %4, i8 0, i64 512, i1 false)
  call void @llvm.memset.p0.i64(ptr noundef nonnull align 16 dereferenceable(512) %5, i8 0, i64 512, i1 false)
  call void @llvm.memset.p0.i64(ptr noundef nonnull align 16 dereferenceable(512) %6, i8 0, i64 512, i1 false)
  %.not23 = icmp eq i32 %1, 0
  br i1 %.not23, label %38, label %37

37:                                               ; preds = %35
  call void @llvm.memset.p0.i64(ptr noundef nonnull align 16 dereferenceable(68) %4, i8 32, i64 68, i1 false)
  call void @llvm.memset.p0.i64(ptr noundef nonnull align 16 dereferenceable(68) %5, i8 32, i64 68, i1 false)
  call void @llvm.memset.p0.i64(ptr noundef nonnull align 16 dereferenceable(68) %6, i8 32, i64 68, i1 false)
  br label %50

38:                                               ; preds = %35
  %39 = getelementptr inbounds i8, ptr %0, i64 193
  %40 = load i8, ptr %39, align 1
  %41 = and i8 %40, 1
  %.not24 = icmp eq i8 %41, 0
  br i1 %.not24, label %43, label %42

42:                                               ; preds = %38
  call void @llvm.memcpy.p0.p0.i64(ptr noundef nonnull align 16 dereferenceable(69) %4, ptr noundef nonnull align 1 dereferenceable(69) @.str.5, i64 69, i1 false)
  br label %44

43:                                               ; preds = %38
  call void @llvm.memcpy.p0.p0.i64(ptr noundef nonnull align 16 dereferenceable(69) %4, ptr noundef nonnull align 1 dereferenceable(69) @.str.6, i64 69, i1 false)
  br label %44

44:                                               ; preds = %43, %42
  %45 = getelementptr inbounds i8, ptr %0, i64 192
  %46 = load i8, ptr %45, align 8
  %47 = and i8 %46, 1
  %.not25 = icmp eq i8 %47, 0
  %48 = select i1 %.not25, ptr @.str.9, ptr @.str.8
  %49 = call i32 (ptr, i64, ptr, ...) @snprintf(ptr noundef nonnull dereferenceable(1) %6, i64 noundef 512, ptr noundef nonnull @.str.7, ptr noundef nonnull %48) #19
  call void @llvm.memcpy.p0.p0.i64(ptr noundef nonnull align 16 dereferenceable(56) %5, ptr noundef nonnull align 1 dereferenceable(56) @.str.10, i64 56, i1 false)
  br label %50

50:                                               ; preds = %44, %37
  %51 = add nsw i32 %13, -3
  %52 = tail call i32 @move(i32 noundef %51, i32 noundef 0)
  call void @llvm.memcpy.p0.p0.i64(ptr noundef nonnull align 16 dereferenceable(512) %7, ptr noundef nonnull align 16 dereferenceable(512) @__const._ZN16cmCursesMainForm9PrintKeysEi.fmt, i64 512, i1 false)
  br i1 %.not23, label %54, label %53

53:                                               ; preds = %50
  call void @llvm.memset.p0.i64(ptr noundef nonnull align 16 dereferenceable(57) %7, i8 32, i64 57, i1 false)
  br label %54

54:                                               ; preds = %50, %53
  %55 = call i32 (ptr, ...) @printw(ptr noundef nonnull %3, ptr noundef nonnull %7)
  %56 = add nsw i32 %13, -2
  %57 = call i32 @move(i32 noundef %56, i32 noundef 0)
  %58 = call i32 (ptr, ...) @printw(ptr noundef nonnull %3, ptr noundef nonnull %4)
  %59 = add nsw i32 %13, -1
  %60 = call i32 @move(i32 noundef %59, i32 noundef 0)
  %61 = call i32 (ptr, ...) @printw(ptr noundef nonnull %3, ptr noundef nonnull %5)
  %62 = call i32 @move(i32 noundef %13, i32 noundef 0)
  %63 = call i32 (ptr, ...) @printw(ptr noundef nonnull %3, ptr noundef nonnull %6)
  br i1 %36, label %74, label %.thread32

.thread32:                                        ; preds = %30, %54
  %.03134 = phi ptr [ %.030, %54 ], [ %28, %30 ]
  call void @llvm.memset.p0.i64(ptr noundef nonnull align 16 dereferenceable(512) %8, i8 0, i64 512, i1 false)
  %64 = getelementptr inbounds i8, ptr %.03134, i64 56
  %65 = load i32, ptr %64, align 8
  %66 = getelementptr inbounds i8, ptr %0, i64 196
  %67 = load i32, ptr %66, align 4
  %68 = call i32 (ptr, i64, ptr, ...) @snprintf(ptr noundef nonnull dereferenceable(1) %8, i64 noundef 512, ptr noundef nonnull @.str.11, i32 noundef %65, i32 noundef %67) #19
  %69 = call i64 @strlen(ptr noundef nonnull dereferenceable(1) %8) #24
  %70 = trunc i64 %69 to i32
  %71 = sub i32 64, %70
  %72 = call i32 @move(i32 noundef 0, i32 noundef %71)
  %73 = call i32 (ptr, ...) @printw(ptr noundef nonnull %3, ptr noundef nonnull %8)
  br label %74

74:                                               ; preds = %.thread32, %54
  %75 = load ptr, ptr %24, align 8
  %76 = call i32 @pos_form_cursor(ptr noundef %75)
  br label %.thread27

.thread27:                                        ; preds = %2, %10, %17, %74
  ret void
}